target datalayout = "e-m:e-p270:32:32-p271:32:32-p272:64:64-i64:64-i128:128-f80:128-n8:16:32:64-S128"
target triple = "x86_64-pc-linux-gnu"

%struct.ObjectAddress = type { i32, i32, i32 }
%struct.ForEachState = type { ptr, i32 }
%struct.List = type { i32, i32, i32, ptr, [0 x %union.ListCell] }
%union.ListCell = type { ptr }

@object_access_hook = external global ptr, align 8
@InvalidObjectAddress = external constant %struct.ObjectAddress, align 4

; Function Attrs: nounwind uwtable
define internal void @PublicationAddSchemas(i32 noundef %0, ptr noundef %1, i1 noundef zeroext %2, ptr noundef %3) #0 {
  %5 = alloca i32, align 4
  %6 = alloca ptr, align 8
  %7 = alloca i8, align 1
  %8 = alloca ptr, align 8
  %9 = alloca ptr, align 8
  %10 = alloca %struct.ForEachState, align 8
  %11 = alloca i32, align 4
  %12 = alloca %struct.ObjectAddress, align 4
  %13 = alloca %struct.ObjectAddress, align 4
  %14 = alloca { i64, i32 }, align 8
  %15 = alloca { i64, i32 }, align 4
  %16 = alloca { i64, i32 }, align 4
  store i32 %0, ptr %5, align 4
  store ptr %1, ptr %6, align 8
  %17 = zext i1 %2 to i8
  store i8 %17, ptr %7, align 1
  store ptr %3, ptr %8, align 8
  call void @llvm.lifetime.start.p0(i64 8, ptr %9) #10
  call void @llvm.lifetime.start.p0(i64 16, ptr %10) #10
  %18 = getelementptr inbounds nuw %struct.ForEachState, ptr %10, i32 0, i32 0
  %19 = load ptr, ptr %6, align 8
  store ptr %19, ptr %18, align 8
  %20 = getelementptr inbounds nuw %struct.ForEachState, ptr %10, i32 0, i32 1
  store i32 0, ptr %20, align 8
  %21 = getelementptr i8, ptr %10, i64 12
  call void @llvm.memset.p0.i64(ptr align 4 %21, i8 0, i64 4, i1 false)
  br label %22

22:                                               ; preds = %78, %4
  %23 = getelementptr inbounds nuw %struct.ForEachState, ptr %10, i32 0, i32 0
  %24 = load ptr, ptr %23, align 8
  %25 = icmp ne ptr %24, null
  br i1 %25, label %26, label %43

26:                                               ; preds = %22
  %27 = getelementptr inbounds nuw %struct.ForEachState, ptr %10, i32 0, i32 1
  %28 = load i32, ptr %27, align 8
  %29 = getelementptr inbounds nuw %struct.ForEachState, ptr %10, i32 0, i32 0
  %30 = load ptr, ptr %29, align 8
  %31 = getelementptr inbounds nuw %struct.List, ptr %30, i32 0, i32 1
  %32 = load i32, ptr %31, align 4
  %33 = icmp slt i32 %28, %32
  br i1 %33, label %34, label %43

34:                                               ; preds = %26
  %35 = getelementptr inbounds nuw %struct.ForEachState, ptr %10, i32 0, i32 0
  %36 = load ptr, ptr %35, align 8
  %37 = getelementptr inbounds nuw %struct.List, ptr %36, i32 0, i32 3
  %38 = load ptr, ptr %37, align 8
  %39 = getelementptr inbounds nuw %struct.ForEachState, ptr %10, i32 0, i32 1
  %40 = load i32, ptr %39, align 8
  %41 = sext i32 %40 to i64
  %42 = getelementptr inbounds %union.ListCell, ptr %38, i64 %41
  store ptr %42, ptr %9, align 8
  br label %44

43:                                               ; preds = %26, %22
  store ptr null, ptr %9, align 8
  br label %44

44:                                               ; preds = %43, %34
  %45 = phi i32 [ 1, %34 ], [ 0, %43 ]
  %46 = icmp ne i32 %45, 0
  br i1 %46, label %48, label %47

47:                                               ; preds = %44
  call void @llvm.lifetime.end.p0(i64 16, ptr %10) #10
  br label %82

48:                                               ; preds = %44
  call void @llvm.lifetime.start.p0(i64 4, ptr %11) #10
  %49 = load ptr, ptr %9, align 8
  %50 = load i32, ptr %49, align 8
  store i32 %50, ptr %11, align 4
  call void @llvm.lifetime.start.p0(i64 12, ptr %12) #10
  call void @llvm.lifetime.start.p0(i64 12, ptr %13) #10
  %51 = load i32, ptr %5, align 4
  %52 = load i32, ptr %11, align 4
  %53 = load i8, ptr %7, align 1, !range !4, !noundef !5
  %54 = trunc i8 %53 to i1
  %55 = call { i64, i32 } @publication_add_schema(i32 noundef %51, i32 noundef %52, i1 noundef zeroext %54)
  store { i64, i32 } %55, ptr %14, align 8
  call void @llvm.memcpy.p0.p0.i64(ptr align 4 %13, ptr align 8 %14, i64 12, i1 false)
  call void @llvm.memcpy.p0.p0.i64(ptr align 4 %12, ptr align 4 %13, i64 12, i1 false)
  call void @llvm.lifetime.end.p0(i64 12, ptr %13) #10
  %56 = load ptr, ptr %8, align 8
  %57 = icmp ne ptr %56, null
  br i1 %57, label %58, label %77

58:                                               ; preds = %48
  %59 = load ptr, ptr %8, align 8
  call void @llvm.memcpy.p0.p0.i64(ptr align 4 %15, ptr align 4 %12, i64 12, i1 false)
  %60 = getelementptr inbounds nuw { i64, i32 }, ptr %15, i32 0, i32 0
  %61 = load i64, ptr %60, align 4
  %62 = getelementptr inbounds nuw { i64, i32 }, ptr %15, i32 0, i32 1
  %63 = load i32, ptr %62, align 4
  call void @llvm.memcpy.p0.p0.i64(ptr align 4 %16, ptr align 4 @InvalidObjectAddress, i64 12, i1 false)
  %64 = getelementptr inbounds nuw { i64, i32 }, ptr %16, i32 0, i32 0
  %65 = load i64, ptr %64, align 4
  %66 = getelementptr inbounds nuw { i64, i32 }, ptr %16, i32 0, i32 1
  %67 = load i32, ptr %66, align 4
  call void @EventTriggerCollectSimpleCommand(i64 %61, i32 %63, i64 %65, i32 %67, ptr noundef %59)
  br label %68

68:                                               ; preds = %58
  %69 = load ptr, ptr @object_access_hook, align 8
  %70 = icmp ne ptr %69, null
  br i1 %70, label %71, label %74

71:                                               ; preds = %68
  %72 = getelementptr inbounds nuw %struct.ObjectAddress, ptr %12, i32 0, i32 1
  %73 = load i32, ptr %72, align 4
  call void @RunObjectPostCreateHook(i32 noundef 6237, i32 noundef %73, i32 noundef 0, i1 noundef zeroext false)
  br label %74

74:                                               ; preds = %71, %68
  br label %75

75:                                               ; preds = %74
  br label %76

76:                                               ; preds = %75
  br label %77

77:                                               ; preds = %76, %48
  call void @llvm.lifetime.end.p0(i64 12, ptr %12) #10
  call void @llvm.lifetime.end.p0(i64 4, ptr %11) #10
  br label %78

78:                                               ; preds = %77
  %79 = getelementptr inbounds nuw %struct.ForEachState, ptr %10, i32 0, i32 1
  %80 = load i32, ptr %79, align 8
  %81 = add i32 %80, 1
  store i32 %81, ptr %79, align 8
  br label %22, !llvm.loop !18

82:                                               ; preds = %47
  call void @llvm.lifetime.end.p0(i64 8, ptr %9) #10
  ret void
}