; Function Attrs: nounwind uwtable
define internal fastcc void @PublicationAddSchemas(i32 noundef %0, ptr noundef readonly captures(address_is_null) %1, i1 noundef zeroext %2, ptr noundef %3) unnamed_addr #0 {
  %5 = getelementptr inbounds nuw i8, ptr %1, i64 4
  %.not = icmp eq ptr %1, null
  br i1 %.not, label %._crit_edge, label %.lr.ph

.lr.ph:                                           ; preds = %4
  %6 = getelementptr inbounds nuw i8, ptr %1, i64 16
  %.not20 = icmp eq ptr %3, null
  %.sroa.0.0.copyload = load i64, ptr @InvalidObjectAddress, align 4
  %.sroa.2.0.copyload = load i32, ptr getelementptr inbounds nuw (i8, ptr @InvalidObjectAddress, i64 8), align 4
  %7 = load i32, ptr %5, align 4
  %8 = icmp sgt i32 %7, 0
  br i1 %.not20, label %.lr.ph.split.us.split, label %.lr.ph.split.split

.lr.ph.split.us.split:                            ; preds = %.lr.ph
  br i1 %8, label %.lr.ph31, label %._crit_edge

.lr.ph31:                                         ; preds = %.lr.ph.split.us.split, %.lr.ph31
  %indvars.iv34 = phi i64 [ %indvars.iv.next35, %.lr.ph31 ], [ 0, %.lr.ph.split.us.split ]
  %9 = load ptr, ptr %6, align 8
  %10 = getelementptr inbounds nuw %union.ListCell, ptr %9, i64 %indvars.iv34
  %11 = load i32, ptr %10, align 8
  %12 = tail call { i64, i32 } @publication_add_schema(i32 noundef %0, i32 noundef %11, i1 noundef zeroext %2) #8
  %indvars.iv.next35 = add nuw nsw i64 %indvars.iv34, 1
  %13 = load i32, ptr %5, align 4
  %14 = sext i32 %13 to i64
  %15 = icmp slt i64 %indvars.iv.next35, %14
  br i1 %15, label %.lr.ph31, label %._crit_edge

.lr.ph.split.split:                               ; preds = %.lr.ph
  br i1 %8, label %.lr.ph29, label %._crit_edge

._crit_edge:                                      ; preds = %22, %.lr.ph31, %.lr.ph.split.us.split, %.lr.ph.split.split, %4
  ret void

.lr.ph29:                                         ; preds = %.lr.ph.split.split, %22
  %indvars.iv = phi i64 [ %indvars.iv.next, %22 ], [ 0, %.lr.ph.split.split ]
  %16 = load ptr, ptr %6, align 8
  %17 = getelementptr inbounds nuw %union.ListCell, ptr %16, i64 %indvars.iv
  %18 = load i32, ptr %17, align 8
  %19 = tail call { i64, i32 } @publication_add_schema(i32 noundef %0, i32 noundef %18, i1 noundef zeroext %2) #8
  %.fca.0.extract = extractvalue { i64, i32 } %19, 0
  %.fca.1.extract = extractvalue { i64, i32 } %19, 1
  tail call void @EventTriggerCollectSimpleCommand(i64 %.fca.0.extract, i32 %.fca.1.extract, i64 %.sroa.0.0.copyload, i32 %.sroa.2.0.copyload, ptr noundef nonnull %3) #8
  %20 = load ptr, ptr @object_access_hook, align 8
  %.not21 = icmp eq ptr %20, null
  br i1 %.not21, label %22, label %21

21:                                               ; preds = %.lr.ph29
  %.sroa.06.4.extract.shift = lshr i64 %.fca.0.extract, 32
  %.sroa.06.4.extract.trunc = trunc nuw i64 %.sroa.06.4.extract.shift to i32
  tail call void @RunObjectPostCreateHook(i32 noundef 6237, i32 noundef %.sroa.06.4.extract.trunc, i32 noundef 0, i1 noundef zeroext false) #8
  br label %22

22:                                               ; preds = %.lr.ph29, %21
  %indvars.iv.next = add nuw nsw i64 %indvars.iv, 1
  %23 = load i32, ptr %5, align 4
  %24 = sext i32 %23 to i64
  %25 = icmp slt i64 %indvars.iv.next, %24
  br i1 %25, label %.lr.ph29, label %._crit_edge
}